target datalayout = "e-m:e-p270:32:32-p271:32:32-p272:64:64-i64:64-i128:128-f80:128-n8:16:32:64-S128"
target triple = "x86_64-pc-linux-gnu"

%struct.SDL_vidpid_list = type { ptr, i32, i32, ptr, ptr, i32, i32, ptr, i32, ptr, i8 }

@.str.11 = private unnamed_addr constant [16 x i8] c" Motion Sensors\00", align 1
@.str.12 = private unnamed_addr constant [10 x i8] c"Nintendo \00", align 1
@.str.13 = private unnamed_addr constant [5 x i8] c" IMU\00", align 1
@.str.14 = private unnamed_addr constant [15 x i8] c" Accelerometer\00", align 1
@.str.15 = private unnamed_addr constant [4 x i8] c" IR\00", align 1
@.str.16 = private unnamed_addr constant [13 x i8] c" Motion Plus\00", align 1
@.str.17 = private unnamed_addr constant [9 x i8] c" Nunchuk\00", align 1
@.str.18 = private unnamed_addr constant [11 x i8] c"uinput-fpc\00", align 1
@.str.19 = private unnamed_addr constant [47 x i8] c"SDL_GAMECONTROLLER_ALLOW_STEAM_VIRTUAL_GAMEPAD\00", align 1
@SDL_allowed_gamepads = internal global { ptr, i32, i32, ptr, ptr, i32, i32, ptr, i32, [4 x i8], ptr, i8, [7 x i8] } { ptr @.str.437, i32 0, i32 0, ptr null, ptr null, i32 0, i32 0, ptr null, i32 0, [4 x i8] zeroinitializer, ptr null, i8 0, [7 x i8] zeroinitializer }, align 8
@SDL_ignored_gamepads = internal global { ptr, i32, i32, ptr, ptr, i32, i32, ptr, i32, [4 x i8], ptr, i8, [7 x i8] } { ptr @.str.439, i32 0, i32 0, ptr null, ptr null, i32 0, i32 0, ptr null, i32 0, [4 x i8] zeroinitializer, ptr null, i8 0, [7 x i8] zeroinitializer }, align 8

; Function Attrs: nounwind uwtable
define hidden zeroext i1 @SDL_ShouldIgnoreGamepad(i16 noundef zeroext %0, i16 noundef zeroext %1, i16 noundef zeroext %2, ptr noundef %3) #0 {
  %5 = alloca i1, align 1
  %6 = alloca i16, align 2
  %7 = alloca i16, align 2
  %8 = alloca i16, align 2
  %9 = alloca ptr, align 8
  store i16 %0, ptr %6, align 2
  store i16 %1, ptr %7, align 2
  store i16 %2, ptr %8, align 2
  store ptr %3, ptr %9, align 8
  %10 = load ptr, ptr %9, align 8
  %11 = call zeroext i1 @SDL_endswith(ptr noundef %10, ptr noundef @.str.11)
  br i1 %11, label %12, label %13

12:                                               ; preds = %4
  store i1 true, ptr %5, align 1
  br label %66

13:                                               ; preds = %4
  %14 = load ptr, ptr %9, align 8
  %15 = call i32 @SDL_strncmp_REAL(ptr noundef %14, ptr noundef @.str.12, i64 noundef 9)
  %16 = icmp eq i32 %15, 0
  br i1 %16, label %17, label %22

17:                                               ; preds = %13
  %18 = load ptr, ptr %9, align 8
  %19 = call ptr @SDL_strstr_REAL(ptr noundef %18, ptr noundef @.str.13)
  %20 = icmp ne ptr %19, null
  br i1 %20, label %21, label %22

21:                                               ; preds = %17
  store i1 true, ptr %5, align 1
  br label %66

22:                                               ; preds = %17, %13
  %23 = load ptr, ptr %9, align 8
  %24 = call zeroext i1 @SDL_endswith(ptr noundef %23, ptr noundef @.str.14)
  br i1 %24, label %34, label %25

25:                                               ; preds = %22
  %26 = load ptr, ptr %9, align 8
  %27 = call zeroext i1 @SDL_endswith(ptr noundef %26, ptr noundef @.str.15)
  br i1 %27, label %34, label %28

28:                                               ; preds = %25
  %29 = load ptr, ptr %9, align 8
  %30 = call zeroext i1 @SDL_endswith(ptr noundef %29, ptr noundef @.str.16)
  br i1 %30, label %34, label %31

31:                                               ; preds = %28
  %32 = load ptr, ptr %9, align 8
  %33 = call zeroext i1 @SDL_endswith(ptr noundef %32, ptr noundef @.str.17)
  br i1 %33, label %34, label %35

34:                                               ; preds = %31, %28, %25, %22
  store i1 true, ptr %5, align 1
  br label %66

35:                                               ; preds = %31
  %36 = load ptr, ptr %9, align 8
  %37 = icmp ne ptr %36, null
  br i1 %37, label %38, label %43

38:                                               ; preds = %35
  %39 = load ptr, ptr %9, align 8
  %40 = call i32 @SDL_strcmp_REAL(ptr noundef %39, ptr noundef @.str.18)
  %41 = icmp eq i32 %40, 0
  br i1 %41, label %42, label %43

42:                                               ; preds = %38
  store i1 true, ptr %5, align 1
  br label %66

43:                                               ; preds = %38, %35
  %44 = load i16, ptr %6, align 2
  %45 = load i16, ptr %7, align 2
  %46 = load i16, ptr %8, align 2
  %47 = call zeroext i1 @SDL_IsJoystickSteamVirtualGamepad(i16 noundef zeroext %44, i16 noundef zeroext %45, i16 noundef zeroext %46)
  br i1 %47, label %48, label %51

48:                                               ; preds = %43
  %49 = call zeroext i1 @SDL_GetHintBoolean_REAL(ptr noundef @.str.19, i1 noundef zeroext false)
  %50 = xor i1 %49, true
  store i1 %50, ptr %5, align 1
  br label %66

51:                                               ; preds = %43
  %52 = load i32, ptr getelementptr inbounds nuw (%struct.SDL_vidpid_list, ptr @SDL_allowed_gamepads, i32 0, i32 1), align 8
  %53 = icmp sgt i32 %52, 0
  br i1 %53, label %54, label %60

54:                                               ; preds = %51
  %55 = load i16, ptr %6, align 2
  %56 = load i16, ptr %7, align 2
  %57 = call zeroext i1 @SDL_VIDPIDInList(i16 noundef zeroext %55, i16 noundef zeroext %56, ptr noundef @SDL_allowed_gamepads)
  br i1 %57, label %58, label %59

58:                                               ; preds = %54
  store i1 false, ptr %5, align 1
  br label %66

59:                                               ; preds = %54
  store i1 true, ptr %5, align 1
  br label %66

60:                                               ; preds = %51
  %61 = load i16, ptr %6, align 2
  %62 = load i16, ptr %7, align 2
  %63 = call zeroext i1 @SDL_VIDPIDInList(i16 noundef zeroext %61, i16 noundef zeroext %62, ptr noundef @SDL_ignored_gamepads)
  br i1 %63, label %64, label %65

64:                                               ; preds = %60
  store i1 true, ptr %5, align 1
  br label %66

65:                                               ; preds = %60
  store i1 false, ptr %5, align 1
  br label %66

66:                                               ; preds = %65, %64, %59, %58, %48, %42, %34, %21, %12
  %67 = load i1, ptr %5, align 1
  ret i1 %67
}