; Function Attrs: nounwind uwtable
define hidden zeroext i1 @SDL_ShouldIgnoreGamepad(i16 noundef zeroext %0, i16 noundef zeroext %1, i16 noundef zeroext %2, ptr noundef %3) local_unnamed_addr #0 {
  %5 = tail call zeroext i1 @SDL_endswith(ptr noundef %3, ptr noundef nonnull @.str.11) #10
  br i1 %5, label %35, label %6

6:                                                ; preds = %4
  %7 = tail call i32 @SDL_strncmp_REAL(ptr noundef %3, ptr noundef nonnull @.str.12, i64 noundef 9) #10
  %8 = icmp eq i32 %7, 0
  br i1 %8, label %9, label %11

9:                                                ; preds = %6
  %10 = tail call ptr @SDL_strstr_REAL(ptr noundef %3, ptr noundef nonnull @.str.13) #10
  %.not = icmp eq ptr %10, null
  br i1 %.not, label %11, label %35

11:                                               ; preds = %9, %6
  %12 = tail call zeroext i1 @SDL_endswith(ptr noundef %3, ptr noundef nonnull @.str.14) #10
  br i1 %12, label %35, label %13

13:                                               ; preds = %11
  %14 = tail call zeroext i1 @SDL_endswith(ptr noundef %3, ptr noundef nonnull @.str.15) #10
  br i1 %14, label %35, label %15

15:                                               ; preds = %13
  %16 = tail call zeroext i1 @SDL_endswith(ptr noundef %3, ptr noundef nonnull @.str.16) #10
  br i1 %16, label %35, label %17

17:                                               ; preds = %15
  %18 = tail call zeroext i1 @SDL_endswith(ptr noundef %3, ptr noundef nonnull @.str.17) #10
  br i1 %18, label %35, label %19

19:                                               ; preds = %17
  %.not17 = icmp eq ptr %3, null
  br i1 %.not17, label %23, label %20

20:                                               ; preds = %19
  %21 = tail call i32 @SDL_strcmp_REAL(ptr noundef nonnull %3, ptr noundef nonnull @.str.18) #10
  %22 = icmp eq i32 %21, 0
  br i1 %22, label %35, label %23

23:                                               ; preds = %20, %19
  %24 = tail call zeroext i1 @SDL_IsJoystickSteamVirtualGamepad(i16 noundef zeroext %0, i16 noundef zeroext %1, i16 noundef zeroext %2) #10
  br i1 %24, label %25, label %28

25:                                               ; preds = %23
  %26 = tail call zeroext i1 @SDL_GetHintBoolean_REAL(ptr noundef nonnull @.str.19, i1 noundef zeroext false) #10
  %27 = xor i1 %26, true
  br label %35

28:                                               ; preds = %23
  %29 = load i32, ptr getelementptr inbounds nuw (i8, ptr @SDL_allowed_gamepads, i64 8), align 8
  %30 = icmp sgt i32 %29, 0
  br i1 %30, label %31, label %33

31:                                               ; preds = %28
  %32 = tail call zeroext i1 @SDL_VIDPIDInList(i16 noundef zeroext %0, i16 noundef zeroext %1, ptr noundef nonnull @SDL_allowed_gamepads) #10
  %not. = xor i1 %32, true
  br label %35

33:                                               ; preds = %28
  %34 = tail call zeroext i1 @SDL_VIDPIDInList(i16 noundef zeroext %0, i16 noundef zeroext %1, ptr noundef nonnull @SDL_ignored_gamepads) #10
  br label %35

35:                                               ; preds = %33, %31, %20, %11, %13, %15, %17, %9, %4, %25
  %.0 = phi i1 [ %27, %25 ], [ true, %4 ], [ true, %9 ], [ true, %17 ], [ true, %15 ], [ true, %13 ], [ true, %11 ], [ true, %20 ], [ %not., %31 ], [ %34, %33 ]
  ret i1 %.0
}